target datalayout = "e-m:e-p270:32:32-p271:32:32-p272:64:64-i64:64-i128:128-f80:128-n8:16:32:64-S128"
target triple = "x86_64-pc-linux-gnu"

%struct.SDL_VideoData = type { ptr, ptr, i32, ptr, i64, i32, ptr, i32, i64, i64, %struct.X11_ClipboardData, %struct.X11_ClipboardData, ptr, i64, %struct.X11_SettingsData, i8, %struct.anon.1, [256 x i32], i8, i8, i8, i64, i8, %struct.SDL_Point, i32, ptr, i32, i8, i32, %struct.anon.2, i8, i64, ptr, ptr, i8, i8, i8 }
%struct.X11_ClipboardData = type { ptr, ptr, ptr, i64, i32 }
%struct.X11_SettingsData = type { ptr }
%struct.anon.1 = type { i64, i64, i64, i64, i64, i64, i64, i64, i64, i64, i64, i64, i64, i64, i64, i64, i64, i64, i64, i64, i64, i64, i64, i64, i64, i64, i64, i64, i64, i64, i64, i64, i64, i64, i64, i64, i64, i64, i64, i64, i64, i64, i64, i64, i64, i64, i64, i64, i64, i64, i64, i64, i64 }
%struct.SDL_Point = type { i32, i32 }
%struct.anon.2 = type { ptr, i32, i32, i32, i16, i32, i32 }
%struct.anon.4 = type { ptr, ptr, i32, i32, i32, i32, ptr, i64, i64, i64, i32, ptr, i32, i32, i32, i32, i32, ptr, i32, i32, ptr, ptr, i32, i64, i64, ptr, ptr, ptr, ptr, i32, ptr, ptr, ptr, i32, i32, ptr, i64, i64, i32, i32, ptr, ptr, i32, ptr }
%struct.Screen = type { ptr, ptr, i64, i32, i32, i32, i32, i32, ptr, i32, ptr, ptr, i64, i64, i64, i32, i32, i32, i32, i64 }

@X11_XQueryPointer = external global ptr, align 8

; Function Attrs: nounwind uwtable
define internal void @X11_UpdateSystemKeyModifiers(ptr noundef %0) #0 {
  %2 = alloca ptr, align 8
  %3 = alloca i64, align 8
  %4 = alloca i32, align 4
  %5 = alloca i32, align 4
  store ptr %0, ptr %2, align 8
  call void @llvm.lifetime.start.p0(i64 8, ptr %3) #7
  call void @llvm.lifetime.start.p0(i64 4, ptr %4) #7
  call void @llvm.lifetime.start.p0(i64 4, ptr %5) #7
  %6 = load ptr, ptr @X11_XQueryPointer, align 8
  %7 = load ptr, ptr %2, align 8
  %8 = getelementptr inbounds nuw %struct.SDL_VideoData, ptr %7, i32 0, i32 0
  %9 = load ptr, ptr %8, align 8
  %10 = load ptr, ptr %2, align 8
  %11 = getelementptr inbounds nuw %struct.SDL_VideoData, ptr %10, i32 0, i32 0
  %12 = load ptr, ptr %11, align 8
  %13 = getelementptr inbounds nuw %struct.anon.4, ptr %12, i32 0, i32 35
  %14 = load ptr, ptr %13, align 8
  %15 = load ptr, ptr %2, align 8
  %16 = getelementptr inbounds nuw %struct.SDL_VideoData, ptr %15, i32 0, i32 0
  %17 = load ptr, ptr %16, align 8
  %18 = getelementptr inbounds nuw %struct.anon.4, ptr %17, i32 0, i32 33
  %19 = load i32, ptr %18, align 8
  %20 = sext i32 %19 to i64
  %21 = getelementptr inbounds %struct.Screen, ptr %14, i64 %20
  %22 = getelementptr inbounds nuw %struct.Screen, ptr %21, i32 0, i32 2
  %23 = load i64, ptr %22, align 8
  %24 = load ptr, ptr %2, align 8
  %25 = getelementptr inbounds nuw %struct.SDL_VideoData, ptr %24, i32 0, i32 29
  %26 = getelementptr inbounds nuw %struct.anon.2, ptr %25, i32 0, i32 3
  %27 = call i32 %6(ptr noundef %9, i64 noundef %23, ptr noundef %3, ptr noundef %3, ptr noundef %4, ptr noundef %5, ptr noundef %4, ptr noundef %5, ptr noundef %26)
  call void @llvm.lifetime.end.p0(i64 4, ptr %5) #7
  call void @llvm.lifetime.end.p0(i64 4, ptr %4) #7
  call void @llvm.lifetime.end.p0(i64 8, ptr %3) #7
  ret void
}

; Function Attrs: nounwind uwtable
define internal void @X11_HandleModifierKeys(ptr noundef %0, i32 noundef %1, i1 noundef zeroext %2, i1 noundef zeroext %3) #0 {
  %5 = alloca ptr, align 8
  %6 = alloca i32, align 4
  %7 = alloca i8, align 1
  %8 = alloca i8, align 1
  %9 = alloca i32, align 4
  %10 = alloca i16, align 2
  %11 = alloca i8, align 1
  %12 = alloca i32, align 4
  store ptr %0, ptr %5, align 8
  store i32 %1, ptr %6, align 4
  %13 = zext i1 %2 to i8
  store i8 %13, ptr %7, align 1
  %14 = zext i1 %3 to i8
  store i8 %14, ptr %8, align 1
  call void @llvm.lifetime.start.p0(i64 4, ptr %9) #7
  %15 = load i32, ptr %6, align 4
  %16 = call i32 @SDL_GetKeyFromScancode_REAL(i32 noundef %15, i16 noundef zeroext 0, i1 noundef zeroext false)
  store i32 %16, ptr %9, align 4
  call void @llvm.lifetime.start.p0(i64 2, ptr %10) #7
  store i16 0, ptr %10, align 2
  call void @llvm.lifetime.start.p0(i64 1, ptr %11) #7
  store i8 0, ptr %11, align 1
  %17 = load i32, ptr %9, align 4
  switch i32 %17, label %103 [
    i32 1073742049, label %18
    i32 1073742053, label %19
    i32 1073742048, label %20
    i32 1073742052, label %21
    i32 1073742050, label %22
    i32 1073742054, label %23
    i32 1073742051, label %24
    i32 1073742055, label %25
    i32 1073742081, label %26
    i32 536870914, label %27
    i32 1073741881, label %28
    i32 1073741907, label %28
    i32 1073741895, label %28
  ]

18:                                               ; preds = %4
  store i16 1, ptr %10, align 2
  br label %104

19:                                               ; preds = %4
  store i16 2, ptr %10, align 2
  br label %104

20:                                               ; preds = %4
  store i16 64, ptr %10, align 2
  br label %104

21:                                               ; preds = %4
  store i16 128, ptr %10, align 2
  br label %104

22:                                               ; preds = %4
  store i16 256, ptr %10, align 2
  br label %104

23:                                               ; preds = %4
  store i16 512, ptr %10, align 2
  br label %104

24:                                               ; preds = %4
  store i16 1024, ptr %10, align 2
  br label %104

25:                                               ; preds = %4
  store i16 2048, ptr %10, align 2
  br label %104

26:                                               ; preds = %4
  store i16 16384, ptr %10, align 2
  br label %104

27:                                               ; preds = %4
  store i16 4, ptr %10, align 2
  br label %104

28:                                               ; preds = %4, %4, %4
  call void @llvm.lifetime.start.p0(i64 4, ptr %12) #7
  %29 = load ptr, ptr %5, align 8
  %30 = getelementptr inbounds nuw %struct.SDL_VideoData, ptr %29, i32 0, i32 29
  %31 = getelementptr inbounds nuw %struct.anon.2, ptr %30, i32 0, i32 3
  %32 = load i32, ptr %31, align 8
  store i32 %32, ptr %12, align 4
  %33 = load ptr, ptr %5, align 8
  call void @X11_UpdateSystemKeyModifiers(ptr noundef %33)
  %34 = load ptr, ptr %5, align 8
  %35 = getelementptr inbounds nuw %struct.SDL_VideoData, ptr %34, i32 0, i32 29
  %36 = getelementptr inbounds nuw %struct.anon.2, ptr %35, i32 0, i32 3
  %37 = load i32, ptr %36, align 8
  %38 = and i32 %37, 2
  %39 = icmp ne i32 %38, 0
  br i1 %39, label %40, label %43

40:                                               ; preds = %28
  %41 = load i32, ptr %12, align 4
  %42 = or i32 %41, 2
  store i32 %42, ptr %12, align 4
  br label %46

43:                                               ; preds = %28
  %44 = load i32, ptr %12, align 4
  %45 = and i32 %44, -3
  store i32 %45, ptr %12, align 4
  br label %46

46:                                               ; preds = %43, %40
  %47 = load ptr, ptr %5, align 8
  %48 = getelementptr inbounds nuw %struct.SDL_VideoData, ptr %47, i32 0, i32 29
  %49 = getelementptr inbounds nuw %struct.anon.2, ptr %48, i32 0, i32 3
  %50 = load i32, ptr %49, align 8
  %51 = load ptr, ptr %5, align 8
  %52 = getelementptr inbounds nuw %struct.SDL_VideoData, ptr %51, i32 0, i32 29
  %53 = getelementptr inbounds nuw %struct.anon.2, ptr %52, i32 0, i32 5
  %54 = load i32, ptr %53, align 8
  %55 = and i32 %50, %54
  %56 = icmp ne i32 %55, 0
  br i1 %56, label %57, label %64

57:                                               ; preds = %46
  %58 = load ptr, ptr %5, align 8
  %59 = getelementptr inbounds nuw %struct.SDL_VideoData, ptr %58, i32 0, i32 29
  %60 = getelementptr inbounds nuw %struct.anon.2, ptr %59, i32 0, i32 5
  %61 = load i32, ptr %60, align 8
  %62 = load i32, ptr %12, align 4
  %63 = or i32 %62, %61
  store i32 %63, ptr %12, align 4
  br label %72

64:                                               ; preds = %46
  %65 = load ptr, ptr %5, align 8
  %66 = getelementptr inbounds nuw %struct.SDL_VideoData, ptr %65, i32 0, i32 29
  %67 = getelementptr inbounds nuw %struct.anon.2, ptr %66, i32 0, i32 5
  %68 = load i32, ptr %67, align 8
  %69 = xor i32 %68, -1
  %70 = load i32, ptr %12, align 4
  %71 = and i32 %70, %69
  store i32 %71, ptr %12, align 4
  br label %72

72:                                               ; preds = %64, %57
  %73 = load ptr, ptr %5, align 8
  %74 = getelementptr inbounds nuw %struct.SDL_VideoData, ptr %73, i32 0, i32 29
  %75 = getelementptr inbounds nuw %struct.anon.2, ptr %74, i32 0, i32 3
  %76 = load i32, ptr %75, align 8
  %77 = load ptr, ptr %5, align 8
  %78 = getelementptr inbounds nuw %struct.SDL_VideoData, ptr %77, i32 0, i32 29
  %79 = getelementptr inbounds nuw %struct.anon.2, ptr %78, i32 0, i32 6
  %80 = load i32, ptr %79, align 4
  %81 = and i32 %76, %80
  %82 = icmp ne i32 %81, 0
  br i1 %82, label %83, label %90

83:                                               ; preds = %72
  %84 = load ptr, ptr %5, align 8
  %85 = getelementptr inbounds nuw %struct.SDL_VideoData, ptr %84, i32 0, i32 29
  %86 = getelementptr inbounds nuw %struct.anon.2, ptr %85, i32 0, i32 6
  %87 = load i32, ptr %86, align 4
  %88 = load i32, ptr %12, align 4
  %89 = or i32 %88, %87
  store i32 %89, ptr %12, align 4
  br label %98

90:                                               ; preds = %72
  %91 = load ptr, ptr %5, align 8
  %92 = getelementptr inbounds nuw %struct.SDL_VideoData, ptr %91, i32 0, i32 29
  %93 = getelementptr inbounds nuw %struct.anon.2, ptr %92, i32 0, i32 6
  %94 = load i32, ptr %93, align 4
  %95 = xor i32 %94, -1
  %96 = load i32, ptr %12, align 4
  %97 = and i32 %96, %95
  store i32 %97, ptr %12, align 4
  br label %98

98:                                               ; preds = %90, %83
  %99 = load i32, ptr %12, align 4
  %100 = load ptr, ptr %5, align 8
  %101 = getelementptr inbounds nuw %struct.SDL_VideoData, ptr %100, i32 0, i32 29
  %102 = getelementptr inbounds nuw %struct.anon.2, ptr %101, i32 0, i32 3
  store i32 %99, ptr %102, align 8
  call void @llvm.lifetime.end.p0(i64 4, ptr %12) #7
  br label %103

103:                                              ; preds = %4, %98
  store i8 1, ptr %11, align 1
  br label %104

104:                                              ; preds = %103, %27, %26, %25, %24, %23, %22, %21, %20, %19, %18
  %105 = load i8, ptr %7, align 1, !range !3, !noundef !4
  %106 = trunc i8 %105 to i1
  br i1 %106, label %107, label %117

107:                                              ; preds = %104
  %108 = load i16, ptr %10, align 2
  %109 = zext i16 %108 to i32
  %110 = load ptr, ptr %5, align 8
  %111 = getelementptr inbounds nuw %struct.SDL_VideoData, ptr %110, i32 0, i32 29
  %112 = getelementptr inbounds nuw %struct.anon.2, ptr %111, i32 0, i32 4
  %113 = load i16, ptr %112, align 4
  %114 = zext i16 %113 to i32
  %115 = or i32 %114, %109
  %116 = trunc i32 %115 to i16
  store i16 %116, ptr %112, align 4
  br label %128

117:                                              ; preds = %104
  %118 = load i16, ptr %10, align 2
  %119 = zext i16 %118 to i32
  %120 = xor i32 %119, -1
  %121 = load ptr, ptr %5, align 8
  %122 = getelementptr inbounds nuw %struct.SDL_VideoData, ptr %121, i32 0, i32 29
  %123 = getelementptr inbounds nuw %struct.anon.2, ptr %122, i32 0, i32 4
  %124 = load i16, ptr %123, align 4
  %125 = zext i16 %124 to i32
  %126 = and i32 %125, %120
  %127 = trunc i32 %126 to i16
  store i16 %127, ptr %123, align 4
  br label %128

128:                                              ; preds = %117, %107
  %129 = load i8, ptr %8, align 1, !range !3, !noundef !4
  %130 = trunc i8 %129 to i1
  br i1 %130, label %131, label %142

131:                                              ; preds = %128
  %132 = load i8, ptr %11, align 1, !range !3, !noundef !4
  %133 = trunc i8 %132 to i1
  br i1 %133, label %134, label %136

134:                                              ; preds = %131
  %135 = load ptr, ptr %5, align 8
  call void @X11_ReconcileModifiers(ptr noundef %135)
  br label %141

136:                                              ; preds = %131
  %137 = load ptr, ptr %5, align 8
  %138 = getelementptr inbounds nuw %struct.SDL_VideoData, ptr %137, i32 0, i32 29
  %139 = getelementptr inbounds nuw %struct.anon.2, ptr %138, i32 0, i32 4
  %140 = load i16, ptr %139, align 4
  call void @SDL_SetModState_REAL(i16 noundef zeroext %140)
  br label %141

141:                                              ; preds = %136, %134
  br label %142

142:                                              ; preds = %141, %128
  call void @llvm.lifetime.end.p0(i64 1, ptr %11) #7
  call void @llvm.lifetime.end.p0(i64 2, ptr %10) #7
  call void @llvm.lifetime.end.p0(i64 4, ptr %9) #7
  ret void
}