; Function Attrs: nounwind uwtable
define internal fastcc void @X11_HandleModifierKeys(ptr noundef %0, i32 noundef %1, i1 noundef zeroext %2, i1 noundef zeroext %3) unnamed_addr #1 {
  %5 = alloca i64, align 8
  %6 = alloca i32, align 4
  %7 = alloca i32, align 4
  %8 = tail call i32 @SDL_GetKeyFromScancode_REAL(i32 noundef %1, i16 noundef zeroext 0, i1 noundef zeroext false) #12
  switch i32 %8, label %46 [
    i32 1073742049, label %47
    i32 1073742053, label %9
    i32 1073742048, label %10
    i32 1073742052, label %11
    i32 1073742050, label %12
    i32 1073742054, label %13
    i32 1073742051, label %14
    i32 1073742055, label %15
    i32 1073742081, label %16
    i32 536870914, label %17
    i32 1073741881, label %18
    i32 1073741907, label %18
    i32 1073741895, label %18
  ]

9:                                                ; preds = %4
  br label %47

10:                                               ; preds = %4
  br label %47

11:                                               ; preds = %4
  br label %47

12:                                               ; preds = %4
  br label %47

13:                                               ; preds = %4
  br label %47

14:                                               ; preds = %4
  br label %47

15:                                               ; preds = %4
  br label %47

16:                                               ; preds = %4
  br label %47

17:                                               ; preds = %4
  br label %47

18:                                               ; preds = %4, %4, %4
  %19 = getelementptr inbounds nuw i8, ptr %0, i64 1712
  %20 = load i32, ptr %19, align 8
  call void @llvm.lifetime.start.p0(i64 8, ptr nonnull %5) #12
  call void @llvm.lifetime.start.p0(i64 4, ptr nonnull %6) #12
  call void @llvm.lifetime.start.p0(i64 4, ptr nonnull %7) #12
  %21 = load ptr, ptr @X11_XQueryPointer, align 8
  %22 = load ptr, ptr %0, align 8
  %23 = getelementptr inbounds nuw i8, ptr %22, i64 232
  %24 = load ptr, ptr %23, align 8
  %25 = getelementptr inbounds nuw i8, ptr %22, i64 224
  %26 = load i32, ptr %25, align 8
  %27 = sext i32 %26 to i64
  %28 = getelementptr inbounds %struct.Screen, ptr %24, i64 %27, i32 2
  %29 = load i64, ptr %28, align 8
  %30 = call i32 %21(ptr noundef %22, i64 noundef %29, ptr noundef nonnull %5, ptr noundef nonnull %5, ptr noundef nonnull %6, ptr noundef nonnull %7, ptr noundef nonnull %6, ptr noundef nonnull %7, ptr noundef nonnull %19) #12
  call void @llvm.lifetime.end.p0(i64 4, ptr nonnull %7) #12
  call void @llvm.lifetime.end.p0(i64 4, ptr nonnull %6) #12
  call void @llvm.lifetime.end.p0(i64 8, ptr nonnull %5) #12
  %31 = load i32, ptr %19, align 8
  %32 = and i32 %31, 2
  %33 = and i32 %20, -3
  %.0 = or disjoint i32 %32, %33
  %34 = getelementptr inbounds nuw i8, ptr %0, i64 1720
  %35 = load i32, ptr %34, align 8
  %36 = and i32 %35, %31
  %.not31 = icmp eq i32 %36, 0
  %37 = or i32 %.0, %35
  %38 = xor i32 %35, -1
  %39 = and i32 %.0, %38
  %.1 = select i1 %.not31, i32 %39, i32 %37
  %40 = getelementptr inbounds nuw i8, ptr %0, i64 1724
  %41 = load i32, ptr %40, align 4
  %42 = and i32 %41, %31
  %.not32 = icmp eq i32 %42, 0
  %43 = or i32 %.1, %41
  %44 = xor i32 %41, -1
  %45 = and i32 %.1, %44
  %.2 = select i1 %.not32, i32 %45, i32 %43
  store i32 %.2, ptr %19, align 8
  br label %46

46:                                               ; preds = %18, %4
  br label %47

47:                                               ; preds = %4, %46, %17, %16, %15, %14, %13, %12, %11, %10, %9
  %.030 = phi i16 [ 0, %46 ], [ 4, %17 ], [ 16384, %16 ], [ 2048, %15 ], [ 1024, %14 ], [ 512, %13 ], [ 256, %12 ], [ 128, %11 ], [ 64, %10 ], [ 2, %9 ], [ 1, %4 ]
  %.029 = phi i1 [ true, %46 ], [ false, %17 ], [ false, %16 ], [ false, %15 ], [ false, %14 ], [ false, %13 ], [ false, %12 ], [ false, %11 ], [ false, %10 ], [ false, %9 ], [ false, %4 ]
  %48 = getelementptr inbounds nuw i8, ptr %0, i64 1716
  %49 = load i16, ptr %48, align 4
  %50 = xor i16 %.030, -1
  %51 = and i16 %49, %50
  %52 = or i16 %49, %.030
  %.sink = select i1 %2, i16 %52, i16 %51
  store i16 %.sink, ptr %48, align 4
  br i1 %3, label %53, label %56

53:                                               ; preds = %47
  br i1 %.029, label %54, label %55

54:                                               ; preds = %53
  call fastcc void @X11_ReconcileModifiers(ptr noundef nonnull %0)
  br label %56

55:                                               ; preds = %53
  call void @SDL_SetModState_REAL(i16 noundef zeroext %.sink) #12
  br label %56

56:                                               ; preds = %54, %55, %47
  ret void
}